; Function Attrs: mustprogress uwtable
define noundef ptr @cvCreateMatHeader(i32 noundef %0, i32 noundef %1, i32 noundef %2) local_unnamed_addr #0 personality ptr @__gxx_personality_v0 {
  %4 = alloca %"class.std::__cxx11::basic_string", align 8
  %5 = alloca %"class.std::allocator", align 1
  %6 = alloca %"class.std::__cxx11::basic_string", align 8
  %7 = alloca %"class.std::allocator", align 1
  %8 = or i32 %1, %0
  %or.cond.not = icmp sgt i32 %8, -1
  br i1 %or.cond.not, label %22, label %9

9:                                                ; preds = %3
  call void @llvm.lifetime.start.p0(i64 32, ptr nonnull %4) #12
  call void @llvm.lifetime.start.p0(i64 1, ptr nonnull %5) #12
  invoke void @_ZNSt7__cxx1112basic_stringIcSt11char_traitsIcESaIcEEC2EPKcRKS3_(ptr noundef nonnull align 8 dereferenceable(32) %4, ptr noundef nonnull @.str.2, ptr noundef nonnull align 1 dereferenceable(1) %5)
          to label %10 unwind label %12

10:                                               ; preds = %9
  invoke void @_ZN2cv5errorEiRKNSt7__cxx1112basic_stringIcSt11char_traitsIcESaIcEEEPKcS9_i(i32 noundef -201, ptr noundef nonnull align 8 dereferenceable(32) %4, ptr noundef nonnull @__func__.cvCreateMatHeader, ptr noundef nonnull @.str.1, i32 noundef 121) #13
          to label %11 unwind label %14

11:                                               ; preds = %10
  unreachable

12:                                               ; preds = %9
  %13 = landingpad { ptr, i32 }
          cleanup
  br label %_ZNSt7__cxx1112basic_stringIcSt11char_traitsIcESaIcEED2Ev.exit

14:                                               ; preds = %10
  %15 = landingpad { ptr, i32 }
          cleanup
  %16 = load ptr, ptr %4, align 8, !tbaa !3
  %17 = getelementptr inbounds nuw i8, ptr %4, i64 16
  %18 = icmp eq ptr %16, %17
  br i1 %18, label %_ZNKSt7__cxx1112basic_stringIcSt11char_traitsIcESaIcEE11_M_is_localEv.exit.thread.i.i, label %_ZNKSt7__cxx1112basic_stringIcSt11char_traitsIcESaIcEE11_M_is_localEv.exit.i.i

_ZNKSt7__cxx1112basic_stringIcSt11char_traitsIcESaIcEE11_M_is_localEv.exit.thread.i.i: ; preds = %14
  %19 = getelementptr inbounds nuw i8, ptr %4, i64 8
  %20 = load i64, ptr %19, align 8, !tbaa !11
  %21 = icmp ult i64 %20, 16
  call void @llvm.assume(i1 %21)
  br label %_ZNSt7__cxx1112basic_stringIcSt11char_traitsIcESaIcEED2Ev.exit

_ZNKSt7__cxx1112basic_stringIcSt11char_traitsIcESaIcEE11_M_is_localEv.exit.i.i: ; preds = %14
  call void @_ZdlPv(ptr noundef %16) #14
  br label %_ZNSt7__cxx1112basic_stringIcSt11char_traitsIcESaIcEED2Ev.exit

_ZNSt7__cxx1112basic_stringIcSt11char_traitsIcESaIcEED2Ev.exit: ; preds = %_ZNKSt7__cxx1112basic_stringIcSt11char_traitsIcESaIcEE11_M_is_localEv.exit.i.i, %_ZNKSt7__cxx1112basic_stringIcSt11char_traitsIcESaIcEE11_M_is_localEv.exit.thread.i.i, %12
  %.pn30 = phi { ptr, i32 } [ %13, %12 ], [ %15, %_ZNKSt7__cxx1112basic_stringIcSt11char_traitsIcESaIcEE11_M_is_localEv.exit.thread.i.i ], [ %15, %_ZNKSt7__cxx1112basic_stringIcSt11char_traitsIcESaIcEE11_M_is_localEv.exit.i.i ]
  call void @llvm.lifetime.end.p0(i64 1, ptr nonnull %5) #12
  call void @llvm.lifetime.end.p0(i64 32, ptr nonnull %4) #12
  br label %62

22:                                               ; preds = %3
  %23 = shl i32 %2, 2
  %24 = and i32 %23, 28
  %25 = lshr i32 675553809, %24
  %26 = and i32 %25, 15
  %27 = icmp eq i32 %26, 0
  br i1 %27, label %28, label %41

28:                                               ; preds = %22
  call void @llvm.lifetime.start.p0(i64 32, ptr nonnull %6) #12
  call void @llvm.lifetime.start.p0(i64 1, ptr nonnull %7) #12
  invoke void @_ZNSt7__cxx1112basic_stringIcSt11char_traitsIcESaIcEEC2EPKcRKS3_(ptr noundef nonnull align 8 dereferenceable(32) %6, ptr noundef nonnull @.str.3, ptr noundef nonnull align 1 dereferenceable(1) %7)
          to label %29 unwind label %31

29:                                               ; preds = %28
  invoke void @_ZN2cv5errorEiRKNSt7__cxx1112basic_stringIcSt11char_traitsIcESaIcEEEPKcS9_i(i32 noundef -210, ptr noundef nonnull align 8 dereferenceable(32) %6, ptr noundef nonnull @__func__.cvCreateMatHeader, ptr noundef nonnull @.str.1, i32 noundef 125) #13
          to label %30 unwind label %33

30:                                               ; preds = %29
  unreachable

31:                                               ; preds = %28
  %32 = landingpad { ptr, i32 }
          cleanup
  br label %_ZNSt7__cxx1112basic_stringIcSt11char_traitsIcESaIcEED2Ev.exit35

33:                                               ; preds = %29
  %34 = landingpad { ptr, i32 }
          cleanup
  %35 = load ptr, ptr %6, align 8, !tbaa !3
  %36 = getelementptr inbounds nuw i8, ptr %6, i64 16
  %37 = icmp eq ptr %35, %36
  br i1 %37, label %_ZNKSt7__cxx1112basic_stringIcSt11char_traitsIcESaIcEE11_M_is_localEv.exit.thread.i.i34, label %_ZNKSt7__cxx1112basic_stringIcSt11char_traitsIcESaIcEE11_M_is_localEv.exit.i.i33

_ZNKSt7__cxx1112basic_stringIcSt11char_traitsIcESaIcEE11_M_is_localEv.exit.thread.i.i34: ; preds = %33
  %38 = getelementptr inbounds nuw i8, ptr %6, i64 8
  %39 = load i64, ptr %38, align 8, !tbaa !11
  %40 = icmp ult i64 %39, 16
  call void @llvm.assume(i1 %40)
  br label %_ZNSt7__cxx1112basic_stringIcSt11char_traitsIcESaIcEED2Ev.exit35

_ZNKSt7__cxx1112basic_stringIcSt11char_traitsIcESaIcEE11_M_is_localEv.exit.i.i33: ; preds = %33
  call void @_ZdlPv(ptr noundef %35) #14
  br label %_ZNSt7__cxx1112basic_stringIcSt11char_traitsIcESaIcEED2Ev.exit35

_ZNSt7__cxx1112basic_stringIcSt11char_traitsIcESaIcEED2Ev.exit35: ; preds = %_ZNKSt7__cxx1112basic_stringIcSt11char_traitsIcESaIcEE11_M_is_localEv.exit.i.i33, %_ZNKSt7__cxx1112basic_stringIcSt11char_traitsIcESaIcEE11_M_is_localEv.exit.thread.i.i34, %31
  %.pn = phi { ptr, i32 } [ %32, %31 ], [ %34, %_ZNKSt7__cxx1112basic_stringIcSt11char_traitsIcESaIcEE11_M_is_localEv.exit.thread.i.i34 ], [ %34, %_ZNKSt7__cxx1112basic_stringIcSt11char_traitsIcESaIcEE11_M_is_localEv.exit.i.i33 ]
  call void @llvm.lifetime.end.p0(i64 1, ptr nonnull %7) #12
  call void @llvm.lifetime.end.p0(i64 32, ptr nonnull %6) #12
  br label %62

41:                                               ; preds = %22
  %42 = lshr i32 %2, 3
  %43 = and i32 %42, 511
  %44 = add nuw nsw i32 %43, 1
  %45 = and i32 %2, 4095
  %46 = mul i32 %44, %1
  %47 = mul i32 %46, %26
  %48 = tail call ptr @cvAlloc(i64 noundef 40)
  %49 = getelementptr inbounds nuw i8, ptr %48, i64 4
  store i32 %47, ptr %49, align 4, !tbaa !18
  %50 = or disjoint i32 %45, 1111638016
  store i32 %50, ptr %48, align 8, !tbaa !22
  %51 = getelementptr inbounds nuw i8, ptr %48, i64 32
  store i32 %0, ptr %51, align 8, !tbaa !23
  %52 = getelementptr inbounds nuw i8, ptr %48, i64 36
  store i32 %1, ptr %52, align 4, !tbaa !23
  %53 = getelementptr inbounds nuw i8, ptr %48, i64 24
  store ptr null, ptr %53, align 8, !tbaa !23
  %54 = getelementptr inbounds nuw i8, ptr %48, i64 8
  store ptr null, ptr %54, align 8, !tbaa !24
  %55 = getelementptr inbounds nuw i8, ptr %48, i64 16
  store i32 1, ptr %55, align 8, !tbaa !25
  %56 = sext i32 %47 to i64
  %57 = sext i32 %0 to i64
  %58 = mul nsw i64 %56, %57
  %59 = icmp sgt i64 %58, 2147483647
  br i1 %59, label %60, label %_ZL12icvCheckHugeP5CvMat.exit

60:                                               ; preds = %41
  %61 = or disjoint i32 %45, 1111621632
  store i32 %61, ptr %48, align 8, !tbaa !22
  br label %_ZL12icvCheckHugeP5CvMat.exit

_ZL12icvCheckHugeP5CvMat.exit:                    ; preds = %41, %60
  ret ptr %48

62:                                               ; preds = %_ZNSt7__cxx1112basic_stringIcSt11char_traitsIcESaIcEED2Ev.exit35, %_ZNSt7__cxx1112basic_stringIcSt11char_traitsIcESaIcEED2Ev.exit
  %.pn30.pn = phi { ptr, i32 } [ %.pn30, %_ZNSt7__cxx1112basic_stringIcSt11char_traitsIcESaIcEED2Ev.exit ], [ %.pn, %_ZNSt7__cxx1112basic_stringIcSt11char_traitsIcESaIcEED2Ev.exit35 ]
  resume { ptr, i32 } %.pn30.pn
}